target datalayout = "e-m:e-p270:32:32-p271:32:32-p272:64:64-i64:64-i128:128-f80:128-n8:16:32:64-S128"
target triple = "x86_64-pc-linux-gnu"

%struct.watcher_list = type { %struct.anon, [2 x ptr], i32, ptr, i32 }
%struct.anon = type { ptr, ptr, ptr, i32 }
%struct.uv_loop_s = type { ptr, i32, [2 x ptr], %union.anon, ptr, i32, i64, i32, [2 x ptr], [2 x ptr], ptr, i32, i32, [2 x ptr], %union.pthread_mutex_t, %struct.uv_async_s, %union.pthread_rwlock_t, ptr, [2 x ptr], [2 x ptr], [2 x ptr], [2 x ptr], [2 x ptr], ptr, %struct.uv__io_s, i32, %struct.anon.1, i64, i64, [2 x i32], %struct.uv__io_s, %struct.uv_signal_s, i32, %struct.uv__io_s, ptr, i32 }
%union.anon = type { ptr }
%union.pthread_mutex_t = type { %struct.__pthread_mutex_s }
%struct.__pthread_mutex_s = type { i32, i32, i32, i32, i32, i16, i16, %struct.__pthread_internal_list }
%struct.__pthread_internal_list = type { ptr, ptr }
%struct.uv_async_s = type { ptr, ptr, i32, ptr, [2 x ptr], %union.anon.0, ptr, i32, ptr, [2 x ptr], i32 }
%union.anon.0 = type { [4 x ptr] }
%union.pthread_rwlock_t = type { %struct.__pthread_rwlock_arch_t }
%struct.__pthread_rwlock_arch_t = type { i32, i32, i32, i32, i32, i32, i32, i32, i8, [7 x i8], i64, i32 }
%struct.anon.1 = type { ptr, i32 }
%struct.uv_signal_s = type { ptr, ptr, i32, ptr, [2 x ptr], %union.anon.2, ptr, i32, ptr, i32, %struct.anon.3, i32, i32 }
%union.anon.2 = type { [4 x ptr] }
%struct.anon.3 = type { ptr, ptr, ptr, i32 }
%struct.uv__io_s = type { ptr, [2 x ptr], [2 x ptr], i32, i32, i32 }
%struct.uv_fs_event_s = type { ptr, ptr, i32, ptr, [2 x ptr], %union.anon.4, ptr, i32, ptr, ptr, [2 x ptr], i32 }
%union.anon.4 = type { [4 x ptr] }
%struct.watcher_root = type { ptr }

; Function Attrs: nounwind uwtable
define internal i32 @compare_watchers(ptr noundef %0, ptr noundef %1) #0 {
  %3 = alloca i32, align 4
  %4 = alloca ptr, align 8
  %5 = alloca ptr, align 8
  store ptr %0, ptr %4, align 8, !tbaa !22
  store ptr %1, ptr %5, align 8, !tbaa !22
  %6 = load ptr, ptr %4, align 8, !tbaa !22
  %7 = getelementptr inbounds nuw %struct.watcher_list, ptr %6, i32 0, i32 4
  %8 = load i32, ptr %7, align 8, !tbaa !54
  %9 = load ptr, ptr %5, align 8, !tbaa !22
  %10 = getelementptr inbounds nuw %struct.watcher_list, ptr %9, i32 0, i32 4
  %11 = load i32, ptr %10, align 8, !tbaa !54
  %12 = icmp slt i32 %8, %11
  br i1 %12, label %13, label %14

13:                                               ; preds = %2
  store i32 -1, ptr %3, align 4
  br label %24

14:                                               ; preds = %2
  %15 = load ptr, ptr %4, align 8, !tbaa !22
  %16 = getelementptr inbounds nuw %struct.watcher_list, ptr %15, i32 0, i32 4
  %17 = load i32, ptr %16, align 8, !tbaa !54
  %18 = load ptr, ptr %5, align 8, !tbaa !22
  %19 = getelementptr inbounds nuw %struct.watcher_list, ptr %18, i32 0, i32 4
  %20 = load i32, ptr %19, align 8, !tbaa !54
  %21 = icmp sgt i32 %17, %20
  br i1 %21, label %22, label %23

22:                                               ; preds = %14
  store i32 1, ptr %3, align 4
  br label %24

23:                                               ; preds = %14
  store i32 0, ptr %3, align 4
  br label %24

24:                                               ; preds = %23, %22, %13
  %25 = load i32, ptr %3, align 4
  ret i32 %25
}

; Function Attrs: nounwind uwtable
define internal ptr @watcher_root_RB_FIND(ptr noundef %0, ptr noundef %1) #0 {
  %3 = alloca ptr, align 8
  %4 = alloca ptr, align 8
  %5 = alloca ptr, align 8
  %6 = alloca ptr, align 8
  %7 = alloca i32, align 4
  %8 = alloca i32, align 4
  store ptr %0, ptr %4, align 8, !tbaa !39
  store ptr %1, ptr %5, align 8, !tbaa !22
  call void @llvm.lifetime.start.p0(i64 8, ptr %6) #7
  %9 = load ptr, ptr %4, align 8, !tbaa !39
  %10 = getelementptr inbounds nuw %struct.watcher_root, ptr %9, i32 0, i32 0
  %11 = load ptr, ptr %10, align 8, !tbaa !41
  store ptr %11, ptr %6, align 8, !tbaa !22
  call void @llvm.lifetime.start.p0(i64 4, ptr %7) #7
  br label %12

12:                                               ; preds = %37, %2
  %13 = load ptr, ptr %6, align 8, !tbaa !22
  %14 = icmp ne ptr %13, null
  br i1 %14, label %15, label %38

15:                                               ; preds = %12
  %16 = load ptr, ptr %5, align 8, !tbaa !22
  %17 = load ptr, ptr %6, align 8, !tbaa !22
  %18 = call i32 @compare_watchers(ptr noundef %16, ptr noundef %17)
  store i32 %18, ptr %7, align 4, !tbaa !37
  %19 = load i32, ptr %7, align 4, !tbaa !37
  %20 = icmp slt i32 %19, 0
  br i1 %20, label %21, label %26

21:                                               ; preds = %15
  %22 = load ptr, ptr %6, align 8, !tbaa !22
  %23 = getelementptr inbounds nuw %struct.watcher_list, ptr %22, i32 0, i32 0
  %24 = getelementptr inbounds nuw %struct.anon, ptr %23, i32 0, i32 0
  %25 = load ptr, ptr %24, align 8, !tbaa !43
  store ptr %25, ptr %6, align 8, !tbaa !22
  br label %37

26:                                               ; preds = %15
  %27 = load i32, ptr %7, align 4, !tbaa !37
  %28 = icmp sgt i32 %27, 0
  br i1 %28, label %29, label %34

29:                                               ; preds = %26
  %30 = load ptr, ptr %6, align 8, !tbaa !22
  %31 = getelementptr inbounds nuw %struct.watcher_list, ptr %30, i32 0, i32 0
  %32 = getelementptr inbounds nuw %struct.anon, ptr %31, i32 0, i32 1
  %33 = load ptr, ptr %32, align 8, !tbaa !44
  store ptr %33, ptr %6, align 8, !tbaa !22
  br label %36

34:                                               ; preds = %26
  %35 = load ptr, ptr %6, align 8, !tbaa !22
  store ptr %35, ptr %3, align 8
  store i32 1, ptr %8, align 4
  br label %39

36:                                               ; preds = %29
  br label %37

37:                                               ; preds = %36, %21
  br label %12, !llvm.loop !75

38:                                               ; preds = %12
  store ptr null, ptr %3, align 8
  store i32 1, ptr %8, align 4
  br label %39

39:                                               ; preds = %38, %34
  call void @llvm.lifetime.end.p0(i64 4, ptr %7) #7
  call void @llvm.lifetime.end.p0(i64 8, ptr %6) #7
  %40 = load ptr, ptr %3, align 8
  ret ptr %40
}

; Function Attrs: nounwind uwtable
define internal ptr @find_watcher(ptr noundef %0, i32 noundef %1) #0 {
  %3 = alloca ptr, align 8
  %4 = alloca i32, align 4
  %5 = alloca %struct.watcher_list, align 8
  store ptr %0, ptr %3, align 8, !tbaa !4
  store i32 %1, ptr %4, align 4, !tbaa !37
  call void @llvm.lifetime.start.p0(i64 72, ptr %5) #7
  %6 = load i32, ptr %4, align 4, !tbaa !37
  %7 = getelementptr inbounds nuw %struct.watcher_list, ptr %5, i32 0, i32 4
  store i32 %6, ptr %7, align 8, !tbaa !54
  %8 = load ptr, ptr %3, align 8, !tbaa !4
  %9 = getelementptr inbounds nuw %struct.uv_loop_s, ptr %8, i32 0, i32 34
  %10 = call ptr @watcher_root_RB_FIND(ptr noundef %9, ptr noundef %5)
  call void @llvm.lifetime.end.p0(i64 72, ptr %5) #7
  ret ptr %10
}

; Function Attrs: nounwind uwtable
define dso_local i32 @uv_fs_event_stop(ptr noundef %0) #0 {
  %2 = alloca i32, align 4
  %3 = alloca ptr, align 8
  %4 = alloca ptr, align 8
  %5 = alloca i32, align 4
  store ptr %0, ptr %3, align 8, !tbaa !28
  call void @llvm.lifetime.start.p0(i64 8, ptr %4) #7
  %6 = load ptr, ptr %3, align 8, !tbaa !28
  %7 = getelementptr inbounds nuw %struct.uv_fs_event_s, ptr %6, i32 0, i32 7
  %8 = load i32, ptr %7, align 8, !tbaa !49
  %9 = and i32 %8, 4
  %10 = icmp ne i32 %9, 0
  br i1 %10, label %12, label %11

11:                                               ; preds = %1
  store i32 0, ptr %2, align 4
  store i32 1, ptr %5, align 4
  br label %79

12:                                               ; preds = %1
  %13 = load ptr, ptr %3, align 8, !tbaa !28
  %14 = getelementptr inbounds nuw %struct.uv_fs_event_s, ptr %13, i32 0, i32 1
  %15 = load ptr, ptr %14, align 8, !tbaa !50
  %16 = load ptr, ptr %3, align 8, !tbaa !28
  %17 = getelementptr inbounds nuw %struct.uv_fs_event_s, ptr %16, i32 0, i32 11
  %18 = load i32, ptr %17, align 8, !tbaa !51
  %19 = call ptr @find_watcher(ptr noundef %15, i32 noundef %18)
  store ptr %19, ptr %4, align 8, !tbaa !22
  %20 = load ptr, ptr %3, align 8, !tbaa !28
  %21 = getelementptr inbounds nuw %struct.uv_fs_event_s, ptr %20, i32 0, i32 11
  store i32 -1, ptr %21, align 8, !tbaa !51
  %22 = load ptr, ptr %3, align 8, !tbaa !28
  %23 = getelementptr inbounds nuw %struct.uv_fs_event_s, ptr %22, i32 0, i32 8
  store ptr null, ptr %23, align 8, !tbaa !30
  br label %24

24:                                               ; preds = %12
  %25 = load ptr, ptr %3, align 8, !tbaa !28
  %26 = getelementptr inbounds nuw %struct.uv_fs_event_s, ptr %25, i32 0, i32 7
  %27 = load i32, ptr %26, align 8, !tbaa !49
  %28 = and i32 %27, 4
  %29 = icmp eq i32 %28, 0
  br i1 %29, label %30, label %31

30:                                               ; preds = %24
  br label %53

31:                                               ; preds = %24
  %32 = load ptr, ptr %3, align 8, !tbaa !28
  %33 = getelementptr inbounds nuw %struct.uv_fs_event_s, ptr %32, i32 0, i32 7
  %34 = load i32, ptr %33, align 8, !tbaa !49
  %35 = and i32 %34, -5
  store i32 %35, ptr %33, align 8, !tbaa !49
  %36 = load ptr, ptr %3, align 8, !tbaa !28
  %37 = getelementptr inbounds nuw %struct.uv_fs_event_s, ptr %36, i32 0, i32 7
  %38 = load i32, ptr %37, align 8, !tbaa !49
  %39 = and i32 %38, 8
  %40 = icmp ne i32 %39, 0
  br i1 %40, label %41, label %51

41:                                               ; preds = %31
  br label %42

42:                                               ; preds = %41
  %43 = load ptr, ptr %3, align 8, !tbaa !28
  %44 = getelementptr inbounds nuw %struct.uv_fs_event_s, ptr %43, i32 0, i32 1
  %45 = load ptr, ptr %44, align 8, !tbaa !50
  %46 = getelementptr inbounds nuw %struct.uv_loop_s, ptr %45, i32 0, i32 1
  %47 = load i32, ptr %46, align 8, !tbaa !52
  %48 = add i32 %47, -1
  store i32 %48, ptr %46, align 8, !tbaa !52
  br label %49

49:                                               ; preds = %42
  br label %50

50:                                               ; preds = %49
  br label %51

51:                                               ; preds = %50, %31
  br label %52

52:                                               ; preds = %51
  br label %53

53:                                               ; preds = %52, %30
  br label %54

54:                                               ; preds = %53
  %55 = load ptr, ptr %3, align 8, !tbaa !28
  %56 = getelementptr inbounds nuw %struct.uv_fs_event_s, ptr %55, i32 0, i32 10
  %57 = getelementptr inbounds [2 x ptr], ptr %56, i64 0, i64 0
  %58 = load ptr, ptr %57, align 8, !tbaa !9
  %59 = load ptr, ptr %3, align 8, !tbaa !28
  %60 = getelementptr inbounds nuw %struct.uv_fs_event_s, ptr %59, i32 0, i32 10
  %61 = getelementptr inbounds [2 x ptr], ptr %60, i64 0, i64 1
  %62 = load ptr, ptr %61, align 8, !tbaa !9
  %63 = getelementptr inbounds [2 x ptr], ptr %62, i64 0, i64 0
  store ptr %58, ptr %63, align 8, !tbaa !9
  %64 = load ptr, ptr %3, align 8, !tbaa !28
  %65 = getelementptr inbounds nuw %struct.uv_fs_event_s, ptr %64, i32 0, i32 10
  %66 = getelementptr inbounds [2 x ptr], ptr %65, i64 0, i64 1
  %67 = load ptr, ptr %66, align 8, !tbaa !9
  %68 = load ptr, ptr %3, align 8, !tbaa !28
  %69 = getelementptr inbounds nuw %struct.uv_fs_event_s, ptr %68, i32 0, i32 10
  %70 = getelementptr inbounds [2 x ptr], ptr %69, i64 0, i64 0
  %71 = load ptr, ptr %70, align 8, !tbaa !9
  %72 = getelementptr inbounds [2 x ptr], ptr %71, i64 0, i64 1
  store ptr %67, ptr %72, align 8, !tbaa !9
  br label %73

73:                                               ; preds = %54
  br label %74

74:                                               ; preds = %73
  %75 = load ptr, ptr %4, align 8, !tbaa !22
  %76 = load ptr, ptr %3, align 8, !tbaa !28
  %77 = getelementptr inbounds nuw %struct.uv_fs_event_s, ptr %76, i32 0, i32 1
  %78 = load ptr, ptr %77, align 8, !tbaa !50
  call void @maybe_free_watcher_list(ptr noundef %75, ptr noundef %78)
  store i32 0, ptr %2, align 4
  store i32 1, ptr %5, align 4
  br label %79

79:                                               ; preds = %74, %11
  call void @llvm.lifetime.end.p0(i64 8, ptr %4) #7
  %80 = load i32, ptr %2, align 4
  ret i32 %80
}